; Function Attrs: mustprogress nofree norecurse nosync nounwind willreturn memory(argmem: readwrite) uwtable
define void @_ZN17grpc_event_engine12experimental16PosixEventEngine16PosixDNSResolverC2ESt10unique_ptrINS0_30RefCountedDNSResolverInterfaceEN9grpc_core16OrphanableDeleteEE(ptr nocapture noundef nonnull writeonly align 8 dereferenceable(16) %this, ptr nocapture noundef %dns_resolver) unnamed_addr #11 align 2 {
entry:
  store ptr getelementptr inbounds ({ [7 x ptr] }, ptr @_ZTVN17grpc_event_engine12experimental16PosixEventEngine16PosixDNSResolverE, i64 0, i32 0, i64 2), ptr %this, align 8
  %dns_resolver_ = getelementptr inbounds i8, ptr %this, i64 8
  %0 = load i64, ptr %dns_resolver, align 8
  store i64 %0, ptr %dns_resolver_, align 8
  store ptr null, ptr %dns_resolver, align 8
  ret void
}